target datalayout = "e-m:e-p270:32:32-p271:32:32-p272:64:64-i64:64-i128:128-f80:128-n8:16:32:64-S128"
target triple = "x86_64-pc-linux-gnu"

%struct.AVTextFormatContext = type { ptr, ptr, ptr, ptr, ptr, ptr, i32, i32, [12 x i32], [12 x [100 x i32]], [12 x ptr], [12 x %struct.AVBPrint], i32, i32, i32, i32, i32, ptr, i32, ptr, i32 }
%struct.AVBPrint = type { ptr, i32, i32, i32, [1 x i8], [1000 x i8] }
%struct.XMLContext = type { ptr, i32, i32, i32, i32 }
%struct.AVTextFormatSection = type { i32, ptr, i32, [12 x i32], ptr, ptr, ptr, ptr, i32, ptr, ptr, ptr, ptr }
%struct.AVTextWriterContext = type { ptr, ptr, ptr, ptr }
%struct.AVTextWriter = type { ptr, i32, ptr, ptr, ptr, ptr, ptr, ptr }

@.str.15 = private unnamed_addr constant [9 x i8] c"ffprobe:\00", align 1
@.str.16 = private unnamed_addr constant [1 x i8] zeroinitializer, align 1
@.str.18 = private unnamed_addr constant [4 x i8] c"%*c\00", align 1
@.str.22 = private unnamed_addr constant [36 x i8] c"Invalid section access at level %d\0A\00", align 1
@.str.23 = private unnamed_addr constant [14 x i8] c"</%sffprobe>\0A\00", align 1
@.str.24 = private unnamed_addr constant [4 x i8] c"/>\0A\00", align 1
@.str.25 = private unnamed_addr constant [7 x i8] c"</%s>\0A\00", align 1

; Function Attrs: inlinehint nounwind uwtable
define internal void @writer_put_str(ptr noundef %0, ptr noundef %1) #2 {
  %3 = alloca ptr, align 8
  %4 = alloca ptr, align 8
  store ptr %0, ptr %3, align 8, !tbaa !4
  store ptr %1, ptr %4, align 8, !tbaa !28
  %5 = load ptr, ptr %3, align 8, !tbaa !4
  %6 = getelementptr inbounds nuw %struct.AVTextFormatContext, ptr %5, i32 0, i32 2
  %7 = load ptr, ptr %6, align 8, !tbaa !41
  %8 = getelementptr inbounds nuw %struct.AVTextWriterContext, ptr %7, i32 0, i32 1
  %9 = load ptr, ptr %8, align 8, !tbaa !42
  %10 = getelementptr inbounds nuw %struct.AVTextWriter, ptr %9, i32 0, i32 6
  %11 = load ptr, ptr %10, align 8, !tbaa !45
  %12 = load ptr, ptr %3, align 8, !tbaa !4
  %13 = getelementptr inbounds nuw %struct.AVTextFormatContext, ptr %12, i32 0, i32 2
  %14 = load ptr, ptr %13, align 8, !tbaa !41
  %15 = load ptr, ptr %4, align 8, !tbaa !28
  call void %11(ptr noundef %14, ptr noundef %15)
  ret void
}

; Function Attrs: inlinehint nounwind uwtable
define internal ptr @tf_get_section(ptr noundef %0, i32 noundef %1) #2 {
  %3 = alloca ptr, align 8
  %4 = alloca ptr, align 8
  %5 = alloca i32, align 4
  store ptr %0, ptr %4, align 8, !tbaa !4
  store i32 %1, ptr %5, align 4, !tbaa !33
  %6 = load ptr, ptr %4, align 8, !tbaa !4
  %7 = icmp ne ptr %6, null
  br i1 %7, label %8, label %22

8:                                                ; preds = %2
  %9 = load i32, ptr %5, align 4, !tbaa !33
  %10 = icmp slt i32 %9, 0
  br i1 %10, label %22, label %11

11:                                               ; preds = %8
  %12 = load i32, ptr %5, align 4, !tbaa !33
  %13 = icmp sge i32 %12, 12
  br i1 %13, label %22, label %14

14:                                               ; preds = %11
  %15 = load ptr, ptr %4, align 8, !tbaa !4
  %16 = getelementptr inbounds nuw %struct.AVTextFormatContext, ptr %15, i32 0, i32 10
  %17 = load i32, ptr %5, align 4, !tbaa !33
  %18 = sext i32 %17 to i64
  %19 = getelementptr inbounds [12 x ptr], ptr %16, i64 0, i64 %18
  %20 = load ptr, ptr %19, align 8, !tbaa !27
  %21 = icmp ne ptr %20, null
  br i1 %21, label %29, label %22

22:                                               ; preds = %14, %11, %8, %2
  %23 = load ptr, ptr %4, align 8, !tbaa !4
  %24 = icmp ne ptr %23, null
  br i1 %24, label %25, label %28

25:                                               ; preds = %22
  %26 = load ptr, ptr %4, align 8, !tbaa !4
  %27 = load i32, ptr %5, align 4, !tbaa !33
  call void (ptr, i32, ptr, ...) @av_log(ptr noundef %26, i32 noundef 16, ptr noundef @.str.22, i32 noundef %27)
  br label %28

28:                                               ; preds = %25, %22
  store ptr null, ptr %3, align 8
  br label %36

29:                                               ; preds = %14
  %30 = load ptr, ptr %4, align 8, !tbaa !4
  %31 = getelementptr inbounds nuw %struct.AVTextFormatContext, ptr %30, i32 0, i32 10
  %32 = load i32, ptr %5, align 4, !tbaa !33
  %33 = sext i32 %32 to i64
  %34 = getelementptr inbounds [12 x ptr], ptr %31, i64 0, i64 %33
  %35 = load ptr, ptr %34, align 8, !tbaa !27
  store ptr %35, ptr %3, align 8
  br label %36

36:                                               ; preds = %29, %28
  %37 = load ptr, ptr %3, align 8
  ret ptr %37
}

; Function Attrs: nounwind uwtable
define internal void @xml_print_section_footer(ptr noundef %0) #1 {
  %2 = alloca ptr, align 8
  %3 = alloca ptr, align 8
  %4 = alloca ptr, align 8
  %5 = alloca i32, align 4
  store ptr %0, ptr %2, align 8, !tbaa !4
  call void @llvm.lifetime.start.p0(i64 8, ptr %3) #6
  %6 = load ptr, ptr %2, align 8, !tbaa !4
  %7 = getelementptr inbounds nuw %struct.AVTextFormatContext, ptr %6, i32 0, i32 4
  %8 = load ptr, ptr %7, align 8, !tbaa !9
  store ptr %8, ptr %3, align 8, !tbaa !18
  call void @llvm.lifetime.start.p0(i64 8, ptr %4) #6
  %9 = load ptr, ptr %2, align 8, !tbaa !4
  %10 = load ptr, ptr %2, align 8, !tbaa !4
  %11 = getelementptr inbounds nuw %struct.AVTextFormatContext, ptr %10, i32 0, i32 7
  %12 = load i32, ptr %11, align 4, !tbaa !26
  %13 = call ptr @tf_get_section(ptr noundef %9, i32 noundef %12)
  store ptr %13, ptr %4, align 8, !tbaa !27
  %14 = load ptr, ptr %4, align 8, !tbaa !27
  %15 = icmp ne ptr %14, null
  br i1 %15, label %17, label %16

16:                                               ; preds = %1
  store i32 1, ptr %5, align 4
  br label %58

17:                                               ; preds = %1
  %18 = load ptr, ptr %2, align 8, !tbaa !4
  %19 = getelementptr inbounds nuw %struct.AVTextFormatContext, ptr %18, i32 0, i32 7
  %20 = load i32, ptr %19, align 4, !tbaa !26
  %21 = icmp eq i32 %20, 0
  br i1 %21, label %22, label %29

22:                                               ; preds = %17
  %23 = load ptr, ptr %2, align 8, !tbaa !4
  %24 = load ptr, ptr %3, align 8, !tbaa !18
  %25 = getelementptr inbounds nuw %struct.XMLContext, ptr %24, i32 0, i32 3
  %26 = load i32, ptr %25, align 8, !tbaa !22
  %27 = icmp ne i32 %26, 0
  %28 = select i1 %27, ptr @.str.15, ptr @.str.16
  call void (ptr, ptr, ...) @writer_printf(ptr noundef %23, ptr noundef @.str.23, ptr noundef %28)
  br label %57

29:                                               ; preds = %17
  %30 = load ptr, ptr %3, align 8, !tbaa !18
  %31 = getelementptr inbounds nuw %struct.XMLContext, ptr %30, i32 0, i32 1
  %32 = load i32, ptr %31, align 8, !tbaa !29
  %33 = icmp ne i32 %32, 0
  br i1 %33, label %34, label %42

34:                                               ; preds = %29
  %35 = load ptr, ptr %3, align 8, !tbaa !18
  %36 = getelementptr inbounds nuw %struct.XMLContext, ptr %35, i32 0, i32 1
  store i32 0, ptr %36, align 8, !tbaa !29
  %37 = load ptr, ptr %2, align 8, !tbaa !4
  call void @writer_put_str(ptr noundef %37, ptr noundef @.str.24)
  %38 = load ptr, ptr %3, align 8, !tbaa !18
  %39 = getelementptr inbounds nuw %struct.XMLContext, ptr %38, i32 0, i32 2
  %40 = load i32, ptr %39, align 4, !tbaa !34
  %41 = add nsw i32 %40, -1
  store i32 %41, ptr %39, align 4, !tbaa !34
  br label %56

42:                                               ; preds = %29
  %43 = load ptr, ptr %2, align 8, !tbaa !4
  %44 = load ptr, ptr %3, align 8, !tbaa !18
  %45 = getelementptr inbounds nuw %struct.XMLContext, ptr %44, i32 0, i32 2
  %46 = load i32, ptr %45, align 4, !tbaa !34
  %47 = mul nsw i32 %46, 4
  call void (ptr, ptr, ...) @writer_printf(ptr noundef %43, ptr noundef @.str.18, i32 noundef %47, i32 noundef 32)
  %48 = load ptr, ptr %2, align 8, !tbaa !4
  %49 = load ptr, ptr %4, align 8, !tbaa !27
  %50 = getelementptr inbounds nuw %struct.AVTextFormatSection, ptr %49, i32 0, i32 1
  %51 = load ptr, ptr %50, align 8, !tbaa !35
  call void (ptr, ptr, ...) @writer_printf(ptr noundef %48, ptr noundef @.str.25, ptr noundef %51)
  %52 = load ptr, ptr %3, align 8, !tbaa !18
  %53 = getelementptr inbounds nuw %struct.XMLContext, ptr %52, i32 0, i32 2
  %54 = load i32, ptr %53, align 4, !tbaa !34
  %55 = add nsw i32 %54, -1
  store i32 %55, ptr %53, align 4, !tbaa !34
  br label %56

56:                                               ; preds = %42, %34
  br label %57

57:                                               ; preds = %56, %22
  store i32 0, ptr %5, align 4
  br label %58

58:                                               ; preds = %57, %16
  call void @llvm.lifetime.end.p0(i64 8, ptr %4) #6
  call void @llvm.lifetime.end.p0(i64 8, ptr %3) #6
  %59 = load i32, ptr %5, align 4
  switch i32 %59, label %61 [
    i32 0, label %60
    i32 1, label %60
  ]

60:                                               ; preds = %58, %58
  ret void

61:                                               ; preds = %58
  unreachable
}