; Function Attrs: nounwind uwtable
define internal void @xml_print_section_footer(ptr noundef %0) #1 {
  %2 = getelementptr inbounds nuw i8, ptr %0, i64 32
  %3 = load ptr, ptr %2, align 8, !tbaa !4
  %4 = getelementptr inbounds nuw i8, ptr %0, i64 52
  %5 = load i32, ptr %4, align 4, !tbaa !21
  %6 = icmp eq ptr %0, null
  %7 = icmp ugt i32 %5, 11
  %or.cond3.i = or i1 %6, %7
  br i1 %or.cond3.i, label %tf_get_section.exit.thread, label %8

8:                                                ; preds = %1
  %9 = getelementptr inbounds nuw i8, ptr %0, i64 4904
  %10 = zext nneg i32 %5 to i64
  %11 = getelementptr inbounds nuw [12 x ptr], ptr %9, i64 0, i64 %10
  %12 = load ptr, ptr %11, align 8, !tbaa !22
  %.not.i = icmp eq ptr %12, null
  br i1 %.not.i, label %tf_get_section.exit.thread, label %tf_get_section.exit

tf_get_section.exit.thread:                       ; preds = %8, %1
  tail call void (ptr, i32, ptr, ...) @av_log(ptr noundef nonnull %0, i32 noundef 16, ptr noundef nonnull @.str.22, i32 noundef %5) #6
  br label %38

tf_get_section.exit:                              ; preds = %8
  %13 = icmp eq i32 %5, 0
  br i1 %13, label %14, label %18

14:                                               ; preds = %tf_get_section.exit
  %15 = getelementptr inbounds nuw i8, ptr %3, i64 16
  %16 = load i32, ptr %15, align 8, !tbaa !18
  %.not17 = icmp eq i32 %16, 0
  %17 = select i1 %.not17, ptr @.str.16, ptr @.str.15
  tail call void (ptr, ptr, ...) @writer_printf(ptr noundef nonnull %0, ptr noundef nonnull @.str.23, ptr noundef nonnull %17)
  br label %38

18:                                               ; preds = %tf_get_section.exit
  %19 = getelementptr inbounds nuw i8, ptr %3, i64 8
  %20 = load i32, ptr %19, align 8, !tbaa !29
  %.not16 = icmp eq i32 %20, 0
  br i1 %.not16, label %30, label %21

21:                                               ; preds = %18
  store i32 0, ptr %19, align 8, !tbaa !29
  %22 = getelementptr i8, ptr %0, i64 16
  %.val = load ptr, ptr %22, align 8, !tbaa !23
  %23 = getelementptr inbounds nuw i8, ptr %.val, i64 8
  %24 = load ptr, ptr %23, align 8, !tbaa !24
  %25 = getelementptr inbounds nuw i8, ptr %24, i64 48
  %26 = load ptr, ptr %25, align 8, !tbaa !27
  tail call void %26(ptr noundef %.val, ptr noundef nonnull @.str.24) #6
  %27 = getelementptr inbounds nuw i8, ptr %3, i64 12
  %28 = load i32, ptr %27, align 4, !tbaa !35
  %29 = add nsw i32 %28, -1
  store i32 %29, ptr %27, align 4, !tbaa !35
  br label %38

30:                                               ; preds = %18
  %31 = getelementptr inbounds nuw i8, ptr %3, i64 12
  %32 = load i32, ptr %31, align 4, !tbaa !35
  %33 = shl nsw i32 %32, 2
  tail call void (ptr, ptr, ...) @writer_printf(ptr noundef nonnull %0, ptr noundef nonnull @.str.18, i32 noundef %33, i32 noundef 32)
  %34 = getelementptr inbounds nuw i8, ptr %12, i64 8
  %35 = load ptr, ptr %34, align 8, !tbaa !36
  tail call void (ptr, ptr, ...) @writer_printf(ptr noundef nonnull %0, ptr noundef nonnull @.str.25, ptr noundef %35)
  %36 = load i32, ptr %31, align 4, !tbaa !35
  %37 = add nsw i32 %36, -1
  store i32 %37, ptr %31, align 4, !tbaa !35
  br label %38

38:                                               ; preds = %tf_get_section.exit.thread, %14, %30, %21
  ret void
}